target datalayout = "e-m:e-p270:32:32-p271:32:32-p272:64:64-i64:64-i128:128-f80:128-n8:16:32:64-S128"
target triple = "x86_64-pc-linux-gnu"

%struct.repository = type { ptr, ptr, ptr, ptr, ptr, %struct.strmap, %struct.strmap, %struct.repo_path_cache, ptr, ptr, ptr, ptr, %struct.repo_settings, ptr, ptr, ptr, ptr, ptr, ptr, i32, i32, i32, ptr, ptr, i32, i32, i8 }
%struct.strmap = type { %struct.hashmap, ptr, i8 }
%struct.hashmap = type { ptr, ptr, ptr, i32, i32, i32, i32, i8 }
%struct.repo_path_cache = type { ptr, ptr, ptr, ptr, ptr, ptr, ptr }
%struct.repo_settings = type { i32, i32, i32, i32, i32, i32, i32, i32, i32, i32, i32, i32, ptr, i32, i32, i32, i32, i32, i32, i32, i64, i64, i64 }
%struct.index_state = type { ptr, i32, i32, i32, i32, ptr, ptr, ptr, %struct.cache_time, i8, i32, %struct.hashmap, %struct.hashmap, %struct.object_id, ptr, ptr, ptr, ptr, ptr, ptr, ptr }
%struct.cache_time = type { i32, i32 }
%struct.object_id = type { [32 x i8], i32 }
%struct.cache_entry = type { %struct.hashmap_entry, %struct.stat_data, i32, i32, i32, i32, i32, %struct.object_id, [0 x i8] }
%struct.hashmap_entry = type { ptr, i32 }
%struct.stat_data = type { %struct.cache_time, %struct.cache_time, i32, i32, i32, i32, i32 }

@usage_string = internal constant [70 x i8] c"git merge-index [-o] [-q] <merge-program> (-a | [--] [<filename>...])\00", align 16
@the_repository = external global ptr, align 8
@.str = private unnamed_addr constant [3 x i8] c"-o\00", align 1
@one_shot = internal global i32 0, align 4
@.str.1 = private unnamed_addr constant [3 x i8] c"-q\00", align 1
@quiet = internal global i32 0, align 4
@pgm = internal global ptr null, align 8
@.str.2 = private unnamed_addr constant [3 x i8] c"--\00", align 1
@.str.3 = private unnamed_addr constant [3 x i8] c"-a\00", align 1
@.str.4 = private unnamed_addr constant [35 x i8] c"git merge-index: unknown option %s\00", align 1
@err = internal global i32 0, align 4
@.str.5 = private unnamed_addr constant [21 x i8] c"merge program failed\00", align 1

; Function Attrs: nounwind uwtable
define internal void @merge_one_path(ptr noundef %0) #0 {
  %2 = alloca ptr, align 8
  %3 = alloca i32, align 4
  store ptr %0, ptr %2, align 8, !tbaa !11
  call void @llvm.lifetime.start.p0(i64 4, ptr %3) #8
  %4 = load ptr, ptr @the_repository, align 8, !tbaa !13
  %5 = getelementptr inbounds nuw %struct.repository, ptr %4, i32 0, i32 15
  %6 = load ptr, ptr %5, align 8, !tbaa !15
  %7 = load ptr, ptr %2, align 8, !tbaa !11
  %8 = load ptr, ptr %2, align 8, !tbaa !11
  %9 = call i64 @strlen(ptr noundef %8) #10
  %10 = trunc i64 %9 to i32
  %11 = call i32 @index_name_pos(ptr noundef %6, ptr noundef %7, i32 noundef %10)
  store i32 %11, ptr %3, align 4, !tbaa !4
  %12 = load i32, ptr %3, align 4, !tbaa !4
  %13 = icmp slt i32 %12, 0
  br i1 %13, label %14, label %20

14:                                               ; preds = %1
  %15 = load i32, ptr %3, align 4, !tbaa !4
  %16 = sub nsw i32 0, %15
  %17 = sub nsw i32 %16, 1
  %18 = load ptr, ptr %2, align 8, !tbaa !11
  %19 = call i32 @merge_entry(i32 noundef %17, ptr noundef %18)
  br label %20

20:                                               ; preds = %14, %1
  call void @llvm.lifetime.end.p0(i64 4, ptr %3) #8
  ret void
}

; Function Attrs: nounwind uwtable
define internal void @merge_all() #0 {
  %1 = alloca i32, align 4
  %2 = alloca ptr, align 8
  %3 = alloca i32, align 4
  call void @llvm.lifetime.start.p0(i64 4, ptr %1) #8
  %4 = load ptr, ptr @the_repository, align 8, !tbaa !13
  %5 = getelementptr inbounds nuw %struct.repository, ptr %4, i32 0, i32 15
  %6 = load ptr, ptr %5, align 8, !tbaa !15
  call void @ensure_full_index(ptr noundef %6)
  store i32 0, ptr %1, align 4, !tbaa !4
  br label %7

7:                                                ; preds = %44, %0
  %8 = load i32, ptr %1, align 4, !tbaa !4
  %9 = load ptr, ptr @the_repository, align 8, !tbaa !13
  %10 = getelementptr inbounds nuw %struct.repository, ptr %9, i32 0, i32 15
  %11 = load ptr, ptr %10, align 8, !tbaa !15
  %12 = getelementptr inbounds nuw %struct.index_state, ptr %11, i32 0, i32 2
  %13 = load i32, ptr %12, align 4, !tbaa !37
  %14 = icmp ult i32 %8, %13
  br i1 %14, label %15, label %47

15:                                               ; preds = %7
  call void @llvm.lifetime.start.p0(i64 8, ptr %2) #8
  %16 = load ptr, ptr @the_repository, align 8, !tbaa !13
  %17 = getelementptr inbounds nuw %struct.repository, ptr %16, i32 0, i32 15
  %18 = load ptr, ptr %17, align 8, !tbaa !15
  %19 = getelementptr inbounds nuw %struct.index_state, ptr %18, i32 0, i32 0
  %20 = load ptr, ptr %19, align 8, !tbaa !49
  %21 = load i32, ptr %1, align 4, !tbaa !4
  %22 = sext i32 %21 to i64
  %23 = getelementptr inbounds ptr, ptr %20, i64 %22
  %24 = load ptr, ptr %23, align 8, !tbaa !50
  store ptr %24, ptr %2, align 8, !tbaa !50
  %25 = load ptr, ptr %2, align 8, !tbaa !50
  %26 = getelementptr inbounds nuw %struct.cache_entry, ptr %25, i32 0, i32 3
  %27 = load i32, ptr %26, align 8, !tbaa !4
  %28 = and i32 12288, %27
  %29 = lshr i32 %28, 12
  %30 = icmp ne i32 %29, 0
  br i1 %30, label %32, label %31

31:                                               ; preds = %15
  store i32 4, ptr %3, align 4
  br label %41

32:                                               ; preds = %15
  %33 = load i32, ptr %1, align 4, !tbaa !4
  %34 = load ptr, ptr %2, align 8, !tbaa !50
  %35 = getelementptr inbounds nuw %struct.cache_entry, ptr %34, i32 0, i32 8
  %36 = getelementptr inbounds [0 x i8], ptr %35, i64 0, i64 0
  %37 = call i32 @merge_entry(i32 noundef %33, ptr noundef %36)
  %38 = sub nsw i32 %37, 1
  %39 = load i32, ptr %1, align 4, !tbaa !4
  %40 = add nsw i32 %39, %38
  store i32 %40, ptr %1, align 4, !tbaa !4
  store i32 0, ptr %3, align 4
  br label %41

41:                                               ; preds = %32, %31
  call void @llvm.lifetime.end.p0(i64 8, ptr %2) #8
  %42 = load i32, ptr %3, align 4
  switch i32 %42, label %48 [
    i32 0, label %43
    i32 4, label %44
  ]

43:                                               ; preds = %41
  br label %44

44:                                               ; preds = %43, %41
  %45 = load i32, ptr %1, align 4, !tbaa !4
  %46 = add nsw i32 %45, 1
  store i32 %46, ptr %1, align 4, !tbaa !4
  br label %7, !llvm.loop !52

47:                                               ; preds = %7
  call void @llvm.lifetime.end.p0(i64 4, ptr %1) #8
  ret void

48:                                               ; preds = %41
  unreachable
}

; Function Attrs: nounwind uwtable
define dso_local i32 @cmd_merge_index(i32 noundef %0, ptr noundef %1, ptr noundef %2, ptr noundef %3) #0 {
  %5 = alloca i32, align 4
  %6 = alloca ptr, align 8
  %7 = alloca ptr, align 8
  %8 = alloca ptr, align 8
  %9 = alloca i32, align 4
  %10 = alloca i32, align 4
  %11 = alloca ptr, align 8
  %12 = alloca i32, align 4
  store i32 %0, ptr %5, align 4, !tbaa !4
  store ptr %1, ptr %6, align 8, !tbaa !8
  store ptr %2, ptr %7, align 8, !tbaa !11
  store ptr %3, ptr %8, align 8, !tbaa !13
  call void @llvm.lifetime.start.p0(i64 4, ptr %9) #8
  call void @llvm.lifetime.start.p0(i64 4, ptr %10) #8
  store i32 0, ptr %10, align 4, !tbaa !4
  %13 = call ptr @signal(i32 noundef 17, ptr noundef null) #8
  %14 = load i32, ptr %5, align 4, !tbaa !4
  %15 = load ptr, ptr %6, align 8, !tbaa !8
  call void @show_usage_if_asked(i32 noundef %14, ptr noundef %15, ptr noundef @usage_string)
  %16 = load i32, ptr %5, align 4, !tbaa !4
  %17 = icmp slt i32 %16, 3
  br i1 %17, label %18, label %19

18:                                               ; preds = %4
  call void @usage(ptr noundef @usage_string) #9
  unreachable

19:                                               ; preds = %4
  %20 = load ptr, ptr @the_repository, align 8, !tbaa !13
  %21 = call i32 @repo_read_index(ptr noundef %20)
  %22 = load ptr, ptr @the_repository, align 8, !tbaa !13
  %23 = getelementptr inbounds nuw %struct.repository, ptr %22, i32 0, i32 15
  %24 = load ptr, ptr %23, align 8, !tbaa !15
  call void @ensure_full_index(ptr noundef %24)
  store i32 1, ptr %9, align 4, !tbaa !4
  %25 = load ptr, ptr %6, align 8, !tbaa !8
  %26 = load i32, ptr %9, align 4, !tbaa !4
  %27 = sext i32 %26 to i64
  %28 = getelementptr inbounds ptr, ptr %25, i64 %27
  %29 = load ptr, ptr %28, align 8, !tbaa !11
  %30 = call i32 @strcmp(ptr noundef %29, ptr noundef @.str) #10
  %31 = icmp ne i32 %30, 0
  br i1 %31, label %35, label %32

32:                                               ; preds = %19
  store i32 1, ptr @one_shot, align 4, !tbaa !4
  %33 = load i32, ptr %9, align 4, !tbaa !4
  %34 = add nsw i32 %33, 1
  store i32 %34, ptr %9, align 4, !tbaa !4
  br label %35

35:                                               ; preds = %32, %19
  %36 = load ptr, ptr %6, align 8, !tbaa !8
  %37 = load i32, ptr %9, align 4, !tbaa !4
  %38 = sext i32 %37 to i64
  %39 = getelementptr inbounds ptr, ptr %36, i64 %38
  %40 = load ptr, ptr %39, align 8, !tbaa !11
  %41 = call i32 @strcmp(ptr noundef %40, ptr noundef @.str.1) #10
  %42 = icmp ne i32 %41, 0
  br i1 %42, label %46, label %43

43:                                               ; preds = %35
  store i32 1, ptr @quiet, align 4, !tbaa !4
  %44 = load i32, ptr %9, align 4, !tbaa !4
  %45 = add nsw i32 %44, 1
  store i32 %45, ptr %9, align 4, !tbaa !4
  br label %46

46:                                               ; preds = %43, %35
  %47 = load ptr, ptr %6, align 8, !tbaa !8
  %48 = load i32, ptr %9, align 4, !tbaa !4
  %49 = add nsw i32 %48, 1
  store i32 %49, ptr %9, align 4, !tbaa !4
  %50 = sext i32 %48 to i64
  %51 = getelementptr inbounds ptr, ptr %47, i64 %50
  %52 = load ptr, ptr %51, align 8, !tbaa !11
  store ptr %52, ptr @pgm, align 8, !tbaa !11
  br label %53

53:                                               ; preds = %87, %46
  %54 = load i32, ptr %9, align 4, !tbaa !4
  %55 = load i32, ptr %5, align 4, !tbaa !4
  %56 = icmp slt i32 %54, %55
  br i1 %56, label %57, label %90

57:                                               ; preds = %53
  call void @llvm.lifetime.start.p0(i64 8, ptr %11) #8
  %58 = load ptr, ptr %6, align 8, !tbaa !8
  %59 = load i32, ptr %9, align 4, !tbaa !4
  %60 = sext i32 %59 to i64
  %61 = getelementptr inbounds ptr, ptr %58, i64 %60
  %62 = load ptr, ptr %61, align 8, !tbaa !11
  store ptr %62, ptr %11, align 8, !tbaa !11
  %63 = load i32, ptr %10, align 4, !tbaa !4
  %64 = icmp ne i32 %63, 0
  br i1 %64, label %82, label %65

65:                                               ; preds = %57
  %66 = load ptr, ptr %11, align 8, !tbaa !11
  %67 = load i8, ptr %66, align 1, !tbaa !34
  %68 = sext i8 %67 to i32
  %69 = icmp eq i32 %68, 45
  br i1 %69, label %70, label %82

70:                                               ; preds = %65
  %71 = load ptr, ptr %11, align 8, !tbaa !11
  %72 = call i32 @strcmp(ptr noundef %71, ptr noundef @.str.2) #10
  %73 = icmp ne i32 %72, 0
  br i1 %73, label %75, label %74

74:                                               ; preds = %70
  store i32 1, ptr %10, align 4, !tbaa !4
  store i32 4, ptr %12, align 4
  br label %84

75:                                               ; preds = %70
  %76 = load ptr, ptr %11, align 8, !tbaa !11
  %77 = call i32 @strcmp(ptr noundef %76, ptr noundef @.str.3) #10
  %78 = icmp ne i32 %77, 0
  br i1 %78, label %80, label %79

79:                                               ; preds = %75
  call void @merge_all()
  store i32 4, ptr %12, align 4
  br label %84

80:                                               ; preds = %75
  %81 = load ptr, ptr %11, align 8, !tbaa !11
  call void (ptr, ...) @die(ptr noundef @.str.4, ptr noundef %81) #9
  unreachable

82:                                               ; preds = %65, %57
  %83 = load ptr, ptr %11, align 8, !tbaa !11
  call void @merge_one_path(ptr noundef %83)
  store i32 0, ptr %12, align 4
  br label %84

84:                                               ; preds = %82, %79, %74
  call void @llvm.lifetime.end.p0(i64 8, ptr %11) #8
  %85 = load i32, ptr %12, align 4
  switch i32 %85, label %99 [
    i32 0, label %86
    i32 4, label %87
  ]

86:                                               ; preds = %84
  br label %87

87:                                               ; preds = %86, %84
  %88 = load i32, ptr %9, align 4, !tbaa !4
  %89 = add nsw i32 %88, 1
  store i32 %89, ptr %9, align 4, !tbaa !4
  br label %53, !llvm.loop !35

90:                                               ; preds = %53
  %91 = load i32, ptr @err, align 4, !tbaa !4
  %92 = icmp ne i32 %91, 0
  br i1 %92, label %93, label %97

93:                                               ; preds = %90
  %94 = load i32, ptr @quiet, align 4, !tbaa !4
  %95 = icmp ne i32 %94, 0
  br i1 %95, label %97, label %96

96:                                               ; preds = %93
  call void (ptr, ...) @die(ptr noundef @.str.5) #9
  unreachable

97:                                               ; preds = %93, %90
  %98 = load i32, ptr @err, align 4, !tbaa !4
  store i32 1, ptr %12, align 4
  call void @llvm.lifetime.end.p0(i64 4, ptr %10) #8
  call void @llvm.lifetime.end.p0(i64 4, ptr %9) #8
  ret i32 %98

99:                                               ; preds = %84
  unreachable
}