; Function Attrs: nounwind uwtable
define dso_local i32 @cmd_merge_index(i32 noundef %0, ptr noundef %1, ptr noundef readnone captures(none) %2, ptr noundef readnone captures(none) %3) local_unnamed_addr #0 {
  %5 = tail call ptr @signal(i32 noundef 17, ptr noundef null) #8
  tail call void @show_usage_if_asked(i32 noundef %0, ptr noundef %1, ptr noundef nonnull @usage_string) #8
  %6 = icmp slt i32 %0, 3
  br i1 %6, label %7, label %sub_0

7:                                                ; preds = %4
  tail call void @usage(ptr noundef nonnull @usage_string) #9
  unreachable

sub_0:                                            ; preds = %4
  %8 = load ptr, ptr @the_repository, align 8, !tbaa !4
  %9 = tail call i32 @repo_read_index(ptr noundef %8) #8
  %10 = load ptr, ptr @the_repository, align 8, !tbaa !4
  %11 = getelementptr inbounds nuw i8, ptr %10, i64 384
  %12 = load ptr, ptr %11, align 8, !tbaa !9
  tail call void @ensure_full_index(ptr noundef %12) #8
  %13 = getelementptr inbounds nuw i8, ptr %1, i64 8
  %14 = load ptr, ptr %13, align 8, !tbaa !30
  %15 = load i8, ptr %14, align 1
  %.not47 = icmp eq i8 %15, 45
  br i1 %.not47, label %sub_1, label %sub_030

sub_1:                                            ; preds = %sub_0
  %16 = getelementptr inbounds nuw i8, ptr %14, i64 1
  %17 = load i8, ptr %16, align 1
  %.not48 = icmp eq i8 %17, 111
  br i1 %.not48, label %.tail, label %sub_030

.tail:                                            ; preds = %sub_1
  %18 = getelementptr inbounds nuw i8, ptr %14, i64 2
  %19 = load i8, ptr %18, align 1
  %20 = icmp eq i8 %19, 0
  br i1 %20, label %21, label %sub_030

21:                                               ; preds = %.tail
  store i1 true, ptr @one_shot, align 4
  br label %sub_030

sub_030:                                          ; preds = %sub_1, %sub_0, %21, %.tail
  %.0 = phi i32 [ 1, %.tail ], [ 2, %21 ], [ 1, %sub_0 ], [ 1, %sub_1 ]
  %22 = zext nneg i32 %.0 to i64
  %23 = getelementptr inbounds nuw ptr, ptr %1, i64 %22
  %24 = load ptr, ptr %23, align 8, !tbaa !30
  %25 = load i8, ptr %24, align 1
  %.not49 = icmp eq i8 %25, 45
  br i1 %.not49, label %sub_131, label %.tail29.thread

sub_131:                                          ; preds = %sub_030
  %26 = getelementptr inbounds nuw i8, ptr %24, i64 1
  %27 = load i8, ptr %26, align 1
  %.not50 = icmp eq i8 %27, 113
  br i1 %.not50, label %.tail29, label %.tail29.thread

.tail29:                                          ; preds = %sub_131
  %28 = getelementptr inbounds nuw i8, ptr %24, i64 2
  %29 = load i8, ptr %28, align 1
  %30 = icmp eq i8 %29, 0
  br i1 %30, label %31, label %.tail29.thread

31:                                               ; preds = %.tail29
  store i1 true, ptr @quiet, align 4
  %32 = add nuw nsw i32 %.0, 1
  %.pre = zext nneg i32 %32 to i64
  %.phi.trans.insert = getelementptr inbounds nuw ptr, ptr %1, i64 %.pre
  %.pre57 = load ptr, ptr %.phi.trans.insert, align 8, !tbaa !30
  br label %.tail29.thread

.tail29.thread:                                   ; preds = %sub_131, %sub_030, %31, %.tail29
  %33 = phi ptr [ %.pre57, %31 ], [ %24, %.tail29 ], [ %24, %sub_030 ], [ %24, %sub_131 ]
  %.pre-phi = phi i64 [ %.pre, %31 ], [ %22, %.tail29 ], [ %22, %sub_030 ], [ %22, %sub_131 ]
  %.1 = phi i32 [ %32, %31 ], [ %.0, %.tail29 ], [ %.0, %sub_030 ], [ %.0, %sub_131 ]
  store ptr %33, ptr @pgm, align 8, !tbaa !30
  %.244 = add nuw nsw i32 %.1, 1
  %34 = icmp samesign ult i32 %.244, %0
  br i1 %34, label %.lr.ph.preheader, label %._crit_edge

.lr.ph.preheader:                                 ; preds = %.tail29.thread
  %35 = add nuw nsw i64 %.pre-phi, 1
  %wide.trip.count = zext nneg i32 %0 to i64
  br label %.lr.ph

.lr.ph:                                           ; preds = %.lr.ph.preheader, %merge_all.exit
  %indvars.iv = phi i64 [ %35, %.lr.ph.preheader ], [ %indvars.iv.next, %merge_all.exit ]
  %.02245 = phi i32 [ 0, %.lr.ph.preheader ], [ %.123, %merge_all.exit ]
  %36 = getelementptr inbounds nuw ptr, ptr %1, i64 %indvars.iv
  %37 = load ptr, ptr %36, align 8, !tbaa !30
  %.not26 = icmp eq i32 %.02245, 0
  br i1 %.not26, label %38, label %82

38:                                               ; preds = %.lr.ph
  %39 = load i8, ptr %37, align 1, !tbaa !31
  %40 = icmp eq i8 %39, 45
  br i1 %40, label %sub_136, label %82

sub_136:                                          ; preds = %38
  %41 = getelementptr inbounds nuw i8, ptr %37, i64 1
  %42 = load i8, ptr %41, align 1
  %.not52 = icmp eq i8 %42, 45
  br i1 %.not52, label %.tail34, label %sub_141

.tail34:                                          ; preds = %sub_136
  %43 = getelementptr inbounds nuw i8, ptr %37, i64 2
  %44 = load i8, ptr %43, align 1
  %45 = icmp eq i8 %44, 0
  br i1 %45, label %merge_all.exit, label %sub_141

sub_141:                                          ; preds = %sub_136, %.tail34
  %46 = getelementptr inbounds nuw i8, ptr %37, i64 1
  %47 = load i8, ptr %46, align 1
  %.not54 = icmp eq i8 %47, 97
  br i1 %.not54, label %.tail39, label %.tail39.thread

.tail39:                                          ; preds = %sub_141
  %48 = getelementptr inbounds nuw i8, ptr %37, i64 2
  %49 = load i8, ptr %48, align 1
  %50 = icmp eq i8 %49, 0
  br i1 %50, label %51, label %.tail39.thread

51:                                               ; preds = %.tail39
  %52 = load ptr, ptr @the_repository, align 8, !tbaa !4
  %53 = getelementptr inbounds nuw i8, ptr %52, i64 384
  %54 = load ptr, ptr %53, align 8, !tbaa !9
  tail call void @ensure_full_index(ptr noundef %54) #8
  %55 = load ptr, ptr @the_repository, align 8, !tbaa !4
  %56 = getelementptr inbounds nuw i8, ptr %55, i64 384
  %57 = load ptr, ptr %56, align 8, !tbaa !9
  %58 = getelementptr inbounds nuw i8, ptr %57, i64 12
  %59 = load i32, ptr %58, align 4, !tbaa !32
  %.not7.i = icmp eq i32 %59, 0
  br i1 %.not7.i, label %merge_all.exit, label %.lr.ph.i

.lr.ph.i:                                         ; preds = %51, %74
  %60 = phi ptr [ %75, %74 ], [ %55, %51 ]
  %61 = phi ptr [ %78, %74 ], [ %57, %51 ]
  %.06.i = phi i32 [ %76, %74 ], [ 0, %51 ]
  %62 = load ptr, ptr %61, align 8, !tbaa !44
  %63 = sext i32 %.06.i to i64
  %64 = getelementptr inbounds ptr, ptr %62, i64 %63
  %65 = load ptr, ptr %64, align 8, !tbaa !45
  %66 = getelementptr inbounds nuw i8, ptr %65, i64 56
  %67 = load i32, ptr %66, align 8, !tbaa !47
  %68 = and i32 %67, 12288
  %.not.i = icmp eq i32 %68, 0
  br i1 %.not.i, label %74, label %69

69:                                               ; preds = %.lr.ph.i
  %70 = getelementptr inbounds nuw i8, ptr %65, i64 108
  %71 = tail call fastcc i32 @merge_entry(i32 noundef %.06.i, ptr noundef nonnull %70)
  %72 = add nsw i32 %.06.i, -1
  %73 = add i32 %72, %71
  %.pre.i = load ptr, ptr @the_repository, align 8, !tbaa !4
  br label %74

74:                                               ; preds = %69, %.lr.ph.i
  %75 = phi ptr [ %.pre.i, %69 ], [ %60, %.lr.ph.i ]
  %.1.i = phi i32 [ %73, %69 ], [ %.06.i, %.lr.ph.i ]
  %76 = add nsw i32 %.1.i, 1
  %77 = getelementptr inbounds nuw i8, ptr %75, i64 384
  %78 = load ptr, ptr %77, align 8, !tbaa !9
  %79 = getelementptr inbounds nuw i8, ptr %78, i64 12
  %80 = load i32, ptr %79, align 4, !tbaa !32
  %81 = icmp ult i32 %76, %80
  br i1 %81, label %.lr.ph.i, label %merge_all.exit, !llvm.loop !48

.tail39.thread:                                   ; preds = %sub_141, %.tail39
  tail call void (ptr, ...) @die(ptr noundef nonnull @.str.4, ptr noundef nonnull %37) #9
  unreachable

82:                                               ; preds = %38, %.lr.ph
  %83 = load ptr, ptr @the_repository, align 8, !tbaa !4
  %84 = getelementptr inbounds nuw i8, ptr %83, i64 384
  %85 = load ptr, ptr %84, align 8, !tbaa !9
  %86 = tail call i64 @strlen(ptr noundef nonnull dereferenceable(1) %37) #10
  %87 = trunc i64 %86 to i32
  %88 = tail call i32 @index_name_pos(ptr noundef %85, ptr noundef nonnull %37, i32 noundef %87) #8
  %89 = icmp slt i32 %88, 0
  br i1 %89, label %90, label %merge_all.exit

90:                                               ; preds = %82
  %91 = xor i32 %88, -1
  %92 = tail call fastcc i32 @merge_entry(i32 noundef %91, ptr noundef nonnull %37)
  br label %merge_all.exit

merge_all.exit:                                   ; preds = %74, %90, %82, %51, %.tail34
  %.123 = phi i32 [ 1, %.tail34 ], [ 0, %51 ], [ %.02245, %82 ], [ %.02245, %90 ], [ 0, %74 ]
  %indvars.iv.next = add nuw nsw i64 %indvars.iv, 1
  %exitcond.not = icmp eq i64 %indvars.iv.next, %wide.trip.count
  br i1 %exitcond.not, label %._crit_edge, label %.lr.ph, !llvm.loop !50

._crit_edge:                                      ; preds = %merge_all.exit, %.tail29.thread
  %93 = load i32, ptr @err, align 4, !tbaa !47
  %94 = icmp eq i32 %93, 0
  %.b = load i1, ptr @quiet, align 4
  %or.cond = select i1 %94, i1 true, i1 %.b
  br i1 %or.cond, label %96, label %95

95:                                               ; preds = %._crit_edge
  tail call void (ptr, ...) @die(ptr noundef nonnull @.str.5) #9
  unreachable

96:                                               ; preds = %._crit_edge
  ret i32 %93
}